; Function Attrs: mustprogress nounwind uwtable
define internal void @_ZN6icu_77L16deleteTransitionEPv(ptr noundef %0) #5 {
  %2 = icmp eq ptr %0, null
  br i1 %2, label %4, label %3

3:                                                ; preds = %1
  tail call void @_ZN6icu_777UMemorydlEPv(ptr noundef nonnull %0) #14
  br label %4

4:                                                ; preds = %3, %1
  ret void
}